target datalayout = "e-m:e-p270:32:32-p271:32:32-p272:64:64-i64:64-i128:128-f80:128-n8:16:32:64-S128"
target triple = "x86_64-pc-linux-gnu"

%struct.SDL_Surface = type { i32, i32, i32, i32, i32, ptr, i32, ptr, i32, i32, ptr, i32, ptr, i32, ptr, i32, %struct.SDL_Rect, %struct.SDL_BlitMap }
%struct.SDL_Rect = type { i32, i32, i32, i32 }
%struct.SDL_BlitMap = type { i32, ptr, ptr, %struct.SDL_BlitInfo, i32, i32 }
%struct.SDL_BlitInfo = type { ptr, ptr, i32, i32, i32, i32, ptr, ptr, i32, i32, i32, i32, ptr, ptr, ptr, ptr, ptr, ptr, i32, i32, i8, i8, i8, i8 }

@SDL_surface_magic = internal global i8 0, align 1
@.str = private unnamed_addr constant [26 x i8] c"Parameter '%s' is invalid\00", align 1
@.str.5 = private unnamed_addr constant [8 x i8] c"surface\00", align 1

; Function Attrs: nounwind uwtable
define hidden zeroext i1 @SDL_SurfaceValid(ptr noundef %0) #0 {
  %2 = alloca ptr, align 8
  store ptr %0, ptr %2, align 8
  %3 = load ptr, ptr %2, align 8
  %4 = icmp ne ptr %3, null
  br i1 %4, label %5, label %10

5:                                                ; preds = %1
  %6 = load ptr, ptr %2, align 8
  %7 = getelementptr inbounds nuw %struct.SDL_Surface, ptr %6, i32 0, i32 7
  %8 = load ptr, ptr %7, align 8
  %9 = icmp eq ptr %8, @SDL_surface_magic
  br label %10

10:                                               ; preds = %5, %1
  %11 = phi i1 [ false, %1 ], [ %9, %5 ]
  ret i1 %11
}

; Function Attrs: nounwind uwtable
define hidden zeroext i1 @SDL_SetSurfaceColorspace_REAL(ptr noundef %0, i32 noundef %1) #0 {
  %3 = alloca i1, align 1
  %4 = alloca ptr, align 8
  %5 = alloca i32, align 4
  store ptr %0, ptr %4, align 8
  store i32 %1, ptr %5, align 4
  %6 = load ptr, ptr %4, align 8
  %7 = call zeroext i1 @SDL_SurfaceValid(ptr noundef %6)
  br i1 %7, label %10, label %8

8:                                                ; preds = %2
  %9 = call zeroext i1 (ptr, ...) @SDL_SetError_REAL(ptr noundef @.str, ptr noundef @.str.5)
  store i1 %9, ptr %3, align 1
  br label %14

10:                                               ; preds = %2
  %11 = load i32, ptr %5, align 4
  %12 = load ptr, ptr %4, align 8
  %13 = getelementptr inbounds nuw %struct.SDL_Surface, ptr %12, i32 0, i32 11
  store i32 %11, ptr %13, align 8
  store i1 true, ptr %3, align 1
  br label %14

14:                                               ; preds = %10, %8
  %15 = load i1, ptr %3, align 1
  ret i1 %15
}

; Function Attrs: nounwind uwtable
define hidden ptr @SDL_DuplicatePixels(i32 noundef %0, i32 noundef %1, i32 noundef %2, i32 noundef %3, ptr noundef %4, i32 noundef %5) #0 {
  %7 = alloca i32, align 4
  %8 = alloca i32, align 4
  %9 = alloca i32, align 4
  %10 = alloca i32, align 4
  %11 = alloca ptr, align 8
  %12 = alloca i32, align 4
  %13 = alloca ptr, align 8
  %14 = alloca i32, align 4
  %15 = alloca ptr, align 8
  %16 = alloca ptr, align 8
  %17 = alloca i32, align 4
  store i32 %0, ptr %7, align 4
  store i32 %1, ptr %8, align 4
  store i32 %2, ptr %9, align 4
  store i32 %3, ptr %10, align 4
  store ptr %4, ptr %11, align 8
  store i32 %5, ptr %12, align 4
  call void @llvm.lifetime.start.p0(i64 8, ptr %13) #8
  %18 = load i32, ptr %7, align 4
  %19 = load i32, ptr %8, align 4
  %20 = load i32, ptr %9, align 4
  %21 = call ptr @SDL_CreateSurface_REAL(i32 noundef %18, i32 noundef %19, i32 noundef %20)
  store ptr %21, ptr %13, align 8
  %22 = load ptr, ptr %13, align 8
  %23 = icmp ne ptr %22, null
  br i1 %23, label %24, label %83

24:                                               ; preds = %6
  call void @llvm.lifetime.start.p0(i64 4, ptr %14) #8
  %25 = load i32, ptr %7, align 4
  %26 = load i32, ptr %9, align 4
  %27 = icmp ne i32 %26, 0
  br i1 %27, label %28, label %48

28:                                               ; preds = %24
  %29 = load i32, ptr %9, align 4
  %30 = lshr i32 %29, 28
  %31 = and i32 %30, 15
  %32 = icmp ne i32 %31, 1
  br i1 %32, label %33, label %48

33:                                               ; preds = %28
  %34 = load i32, ptr %9, align 4
  %35 = icmp eq i32 %34, 844715353
  br i1 %35, label %45, label %36

36:                                               ; preds = %33
  %37 = load i32, ptr %9, align 4
  %38 = icmp eq i32 %37, 1498831189
  br i1 %38, label %45, label %39

39:                                               ; preds = %36
  %40 = load i32, ptr %9, align 4
  %41 = icmp eq i32 %40, 1431918169
  br i1 %41, label %45, label %42

42:                                               ; preds = %39
  %43 = load i32, ptr %9, align 4
  %44 = icmp eq i32 %43, 808530000
  br label %45

45:                                               ; preds = %42, %39, %36, %33
  %46 = phi i1 [ true, %39 ], [ true, %36 ], [ true, %33 ], [ %44, %42 ]
  %47 = select i1 %46, i32 2, i32 1
  br label %52

48:                                               ; preds = %28, %24
  %49 = load i32, ptr %9, align 4
  %50 = lshr i32 %49, 0
  %51 = and i32 %50, 255
  br label %52

52:                                               ; preds = %48, %45
  %53 = phi i32 [ %47, %45 ], [ %51, %48 ]
  %54 = mul i32 %25, %53
  store i32 %54, ptr %14, align 4
  call void @llvm.lifetime.start.p0(i64 8, ptr %15) #8
  %55 = load ptr, ptr %11, align 8
  store ptr %55, ptr %15, align 8
  call void @llvm.lifetime.start.p0(i64 8, ptr %16) #8
  %56 = load ptr, ptr %13, align 8
  %57 = getelementptr inbounds nuw %struct.SDL_Surface, ptr %56, i32 0, i32 5
  %58 = load ptr, ptr %57, align 8
  store ptr %58, ptr %16, align 8
  call void @llvm.lifetime.start.p0(i64 4, ptr %17) #8
  %59 = load i32, ptr %8, align 4
  store i32 %59, ptr %17, align 4
  br label %60

60:                                               ; preds = %64, %52
  %61 = load i32, ptr %17, align 4
  %62 = add nsw i32 %61, -1
  store i32 %62, ptr %17, align 4
  %63 = icmp ne i32 %61, 0
  br i1 %63, label %64, label %79

64:                                               ; preds = %60
  %65 = load ptr, ptr %16, align 8
  %66 = load ptr, ptr %15, align 8
  %67 = load i32, ptr %14, align 4
  %68 = sext i32 %67 to i64
  call void @llvm.memcpy.p0.p0.i64(ptr align 1 %65, ptr align 1 %66, i64 %68, i1 false)
  %69 = load ptr, ptr %13, align 8
  %70 = getelementptr inbounds nuw %struct.SDL_Surface, ptr %69, i32 0, i32 4
  %71 = load i32, ptr %70, align 8
  %72 = load ptr, ptr %16, align 8
  %73 = sext i32 %71 to i64
  %74 = getelementptr inbounds i8, ptr %72, i64 %73
  store ptr %74, ptr %16, align 8
  %75 = load i32, ptr %12, align 4
  %76 = load ptr, ptr %15, align 8
  %77 = sext i32 %75 to i64
  %78 = getelementptr inbounds i8, ptr %76, i64 %77
  store ptr %78, ptr %15, align 8
  br label %60, !llvm.loop !32

79:                                               ; preds = %60
  %80 = load ptr, ptr %13, align 8
  %81 = load i32, ptr %10, align 4
  %82 = call zeroext i1 @SDL_SetSurfaceColorspace_REAL(ptr noundef %80, i32 noundef %81)
  call void @llvm.lifetime.end.p0(i64 4, ptr %17) #8
  call void @llvm.lifetime.end.p0(i64 8, ptr %16) #8
  call void @llvm.lifetime.end.p0(i64 8, ptr %15) #8
  call void @llvm.lifetime.end.p0(i64 4, ptr %14) #8
  br label %83

83:                                               ; preds = %79, %6
  %84 = load ptr, ptr %13, align 8
  call void @llvm.lifetime.end.p0(i64 8, ptr %13) #8
  ret ptr %84
}