; Function Attrs: nounwind uwtable
define hidden ptr @SDL_DuplicatePixels(i32 noundef %0, i32 noundef %1, i32 noundef %2, i32 noundef %3, ptr noundef readonly captures(none) %4, i32 noundef %5) local_unnamed_addr #2 {
  %7 = tail call ptr @SDL_CreateSurface_REAL(i32 noundef %0, i32 noundef %1, i32 noundef %2)
  %.not = icmp eq ptr %7, null
  br i1 %.not, label %SDL_SetSurfaceColorspace_REAL.exit, label %8

8:                                                ; preds = %6
  %.not32 = icmp eq i32 %2, 0
  %.mask = and i32 %2, -268435456
  %.not33 = icmp eq i32 %.mask, 268435456
  %or.cond35 = or i1 %.not32, %.not33
  br i1 %or.cond35, label %13, label %9

9:                                                ; preds = %8
  switch i32 %2, label %10 [
    i32 1498831189, label %15
    i32 1431918169, label %15
    i32 844715353, label %15
  ]

10:                                               ; preds = %9
  %11 = icmp eq i32 %2, 808530000
  %12 = select i1 %11, i32 2, i32 1
  br label %15

13:                                               ; preds = %8
  %14 = and i32 %2, 255
  br label %15

15:                                               ; preds = %10, %9, %9, %9, %13
  %16 = phi i32 [ %14, %13 ], [ 2, %9 ], [ %12, %10 ], [ 2, %9 ], [ 2, %9 ]
  %.not3436 = icmp eq i32 %1, 0
  br i1 %.not3436, label %SDL_SurfaceValid.exit.i, label %.lr.ph

.lr.ph:                                           ; preds = %15
  %17 = getelementptr inbounds nuw i8, ptr %7, i64 24
  %18 = load ptr, ptr %17, align 8
  %19 = mul i32 %16, %0
  %20 = sext i32 %19 to i64
  %21 = getelementptr inbounds nuw i8, ptr %7, i64 16
  %22 = sext i32 %5 to i64
  br label %23

23:                                               ; preds = %.lr.ph, %23
  %.039 = phi i32 [ %1, %.lr.ph ], [ %24, %23 ]
  %.02838 = phi ptr [ %18, %.lr.ph ], [ %27, %23 ]
  %.02937 = phi ptr [ %4, %.lr.ph ], [ %28, %23 ]
  %24 = add nsw i32 %.039, -1
  tail call void @llvm.memcpy.p0.p0.i64(ptr align 1 %.02838, ptr align 1 %.02937, i64 %20, i1 false)
  %25 = load i32, ptr %21, align 8
  %26 = sext i32 %25 to i64
  %27 = getelementptr inbounds i8, ptr %.02838, i64 %26
  %28 = getelementptr inbounds i8, ptr %.02937, i64 %22
  %.not34 = icmp eq i32 %24, 0
  br i1 %.not34, label %SDL_SurfaceValid.exit.i, label %23, !llvm.loop !29

SDL_SurfaceValid.exit.i:                          ; preds = %23, %15
  %29 = getelementptr inbounds nuw i8, ptr %7, i64 40
  %30 = load ptr, ptr %29, align 8
  %31 = icmp eq ptr %30, @SDL_surface_magic
  br i1 %31, label %33, label %SDL_SurfaceValid.exit.thread.i

SDL_SurfaceValid.exit.thread.i:                   ; preds = %SDL_SurfaceValid.exit.i
  %32 = tail call zeroext i1 (ptr, ...) @SDL_SetError_REAL(ptr noundef nonnull @.str, ptr noundef nonnull @.str.5) #10
  br label %SDL_SetSurfaceColorspace_REAL.exit

33:                                               ; preds = %SDL_SurfaceValid.exit.i
  %34 = getelementptr inbounds nuw i8, ptr %7, i64 64
  store i32 %3, ptr %34, align 8
  br label %SDL_SetSurfaceColorspace_REAL.exit

SDL_SetSurfaceColorspace_REAL.exit:               ; preds = %33, %SDL_SurfaceValid.exit.thread.i, %6
  ret ptr %7
}